; Function Attrs: mustprogress nounwind uwtable
define internal fastcc void @"_ZSt8generateIN9__gnu_cxx17__normal_iteratorIPNSt7__cxx1112basic_stringIcSt11char_traitsIcESaIcEEESt6vectorIS7_SaIS7_EEEEZ16cmForEachCommandRKSB_R17cmExecutionStatusE3$_0EvT_SI_T0_"(ptr %0, ptr readnone %1, ptr nocapture %2, i32 %3) unnamed_addr #5 {
  %5 = alloca %"class.std::__cxx11::basic_string", align 8
  %.not6 = icmp eq ptr %0, %1
  br i1 %.not6, label %._crit_edge, label %.lr.ph

.lr.ph:                                           ; preds = %4, %.lr.ph
  %.sroa.03.07 = phi ptr [ %10, %.lr.ph ], [ %0, %4 ]
  %6 = load i32, ptr %2, align 4, !noalias !58
  call void @_ZNSt7__cxx119to_stringEi(ptr dead_on_unwind nonnull writable sret(%"class.std::__cxx11::basic_string") align 8 %5, i32 noundef %6) #24
  %7 = load i32, ptr %2, align 4
  %8 = add nsw i32 %7, %3
  store i32 %8, ptr %2, align 4
  %9 = call noundef nonnull align 8 dereferenceable(32) ptr @_ZNSt7__cxx1112basic_stringIcSt11char_traitsIcESaIcEEaSEOS4_(ptr noundef nonnull align 8 dereferenceable(32) %.sroa.03.07, ptr noundef nonnull align 8 dereferenceable(32) %5) #24
  call void @_ZNSt7__cxx1112basic_stringIcSt11char_traitsIcESaIcEED1Ev(ptr noundef nonnull align 8 dereferenceable(32) %5) #24
  %10 = getelementptr inbounds i8, ptr %.sroa.03.07, i64 32
  %.not = icmp eq ptr %10, %1
  br i1 %.not, label %._crit_edge, label %.lr.ph, !llvm.loop !61

._crit_edge:                                      ; preds = %.lr.ph, %4
  ret void
}